; Function Attrs: mustprogress uwtable
define hidden void @_ZN4cvc58internal6theory7strings9InferInfo11processFactERSt6vectorINS0_12NodeTemplateILb1EEESaIS6_EERPNS0_14ProofGeneratorE(ptr dead_on_unwind noalias writable writeonly sret(%"class.cvc5::internal::NodeTemplate") align 8 captures(none) %0, ptr noundef nonnull align 8 dereferenceable(200) %1, ptr noundef nonnull align 8 dereferenceable(24) %2, ptr noundef nonnull align 8 dereferenceable(8) %3) unnamed_addr #3 align 2 personality ptr @__gxx_personality_v0 {
  %5 = alloca %"class.cvc5::internal::NodeTemplate", align 8
  %6 = getelementptr inbounds nuw i8, ptr %1, i64 40
  %7 = load ptr, ptr %6, align 8, !tbaa !52
  %8 = getelementptr inbounds nuw i8, ptr %1, i64 48
  %9 = load ptr, ptr %8, align 8, !tbaa !52
  %.not11 = icmp eq ptr %7, %9
  br i1 %.not11, label %._crit_edge, label %.lr.ph

._crit_edge:                                      ; preds = %_ZN4cvc58internal12NodeTemplateILb1EED2Ev.exit, %4
  %10 = getelementptr inbounds nuw i8, ptr %1, i64 16
  %11 = load ptr, ptr %10, align 8, !tbaa !10
  %12 = load ptr, ptr %11, align 8, !tbaa !8
  %13 = getelementptr inbounds nuw i8, ptr %12, i64 24
  %14 = load ptr, ptr %13, align 8
  call void %14(ptr noundef nonnull align 8 dereferenceable(8) %11, ptr noundef nonnull align 8 dereferenceable(200) %1, ptr noundef nonnull align 8 dereferenceable(8) %3)
  %15 = getelementptr inbounds nuw i8, ptr %1, i64 32
  %16 = load ptr, ptr %15, align 8, !tbaa !40
  store ptr %16, ptr %0, align 8, !tbaa !40
  %17 = load i64, ptr %16, align 8
  %18 = lshr i64 %17, 40
  %19 = trunc nuw nsw i64 %18 to i32
  %20 = and i32 %19, 1048575
  %21 = icmp samesign ult i32 %20, 1048574
  br i1 %21, label %22, label %27, !prof !53

22:                                               ; preds = %._crit_edge
  %23 = add i64 %17, 1099511627776
  %24 = and i64 %23, 1152920405095219200
  %25 = and i64 %17, -1152920405095219201
  %26 = or disjoint i64 %24, %25
  store i64 %26, ptr %16, align 8
  br label %_ZN4cvc58internal12NodeTemplateILb1EEC2ERKS2_.exit

27:                                               ; preds = %._crit_edge
  %28 = icmp eq i32 %20, 1048574
  br i1 %28, label %29, label %_ZN4cvc58internal12NodeTemplateILb1EEC2ERKS2_.exit, !prof !46

29:                                               ; preds = %27
  %30 = or i64 %17, 1152920405095219200
  store i64 %30, ptr %16, align 8
  call void @_ZN4cvc58internal4expr9NodeValue20markRefCountMaxedOutEv(ptr noundef nonnull align 8 dereferenceable(24) %16)
  br label %_ZN4cvc58internal12NodeTemplateILb1EEC2ERKS2_.exit

_ZN4cvc58internal12NodeTemplateILb1EEC2ERKS2_.exit: ; preds = %22, %27, %29
  ret void

.lr.ph:                                           ; preds = %4, %_ZN4cvc58internal12NodeTemplateILb1EED2Ev.exit
  %.sroa.08.012 = phi ptr [ %60, %_ZN4cvc58internal12NodeTemplateILb1EED2Ev.exit ], [ %7, %4 ]
  %31 = load ptr, ptr %.sroa.08.012, align 8, !tbaa !40
  store ptr %31, ptr %5, align 8, !tbaa !40
  %32 = load i64, ptr %31, align 8
  %33 = lshr i64 %32, 40
  %34 = trunc nuw nsw i64 %33 to i32
  %35 = and i32 %34, 1048575
  %36 = icmp samesign ult i32 %35, 1048574
  br i1 %36, label %37, label %42, !prof !53

37:                                               ; preds = %.lr.ph
  %38 = add i64 %32, 1099511627776
  %39 = and i64 %38, 1152920405095219200
  %40 = and i64 %32, -1152920405095219201
  %41 = or disjoint i64 %39, %40
  store i64 %41, ptr %31, align 8
  br label %_ZN4cvc58internal12NodeTemplateILb1EEC2ERKS2_.exit7

42:                                               ; preds = %.lr.ph
  %43 = icmp eq i32 %35, 1048574
  br i1 %43, label %44, label %_ZN4cvc58internal12NodeTemplateILb1EEC2ERKS2_.exit7, !prof !46

44:                                               ; preds = %42
  %45 = or i64 %32, 1152920405095219200
  store i64 %45, ptr %31, align 8
  call void @_ZN4cvc58internal4expr9NodeValue20markRefCountMaxedOutEv(ptr noundef nonnull align 8 dereferenceable(24) %31)
  br label %_ZN4cvc58internal12NodeTemplateILb1EEC2ERKS2_.exit7

_ZN4cvc58internal12NodeTemplateILb1EEC2ERKS2_.exit7: ; preds = %37, %42, %44
  invoke void @_ZN4cvc58internal6theory7strings5utils9flattenOpENS0_4kind6Kind_tENS0_12NodeTemplateILb1EEERSt6vectorIS7_SaIS7_EE(i32 noundef 22, ptr noundef nonnull %5, ptr noundef nonnull align 8 dereferenceable(24) %2)
          to label %46 unwind label %61

46:                                               ; preds = %_ZN4cvc58internal12NodeTemplateILb1EEC2ERKS2_.exit7
  %47 = load ptr, ptr %5, align 8, !tbaa !40
  %48 = load i64, ptr %47, align 8
  %49 = and i64 %48, 1152920405095219200
  %.not.i.i = icmp eq i64 %49, 1152920405095219200
  br i1 %.not.i.i, label %_ZN4cvc58internal12NodeTemplateILb1EED2Ev.exit, label %50, !prof !46

50:                                               ; preds = %46
  %51 = add i64 %48, 1152920405095219200
  %52 = and i64 %51, 1152920405095219200
  %53 = and i64 %48, -1152920405095219201
  %54 = or disjoint i64 %52, %53
  store i64 %54, ptr %47, align 8
  %55 = icmp eq i64 %52, 0
  br i1 %55, label %56, label %_ZN4cvc58internal12NodeTemplateILb1EED2Ev.exit, !prof !46

56:                                               ; preds = %50
  invoke void @_ZN4cvc58internal4expr9NodeValue15markForDeletionEv(ptr noundef nonnull align 8 dereferenceable(24) %47)
          to label %_ZN4cvc58internal12NodeTemplateILb1EED2Ev.exit unwind label %57

57:                                               ; preds = %56
  %58 = landingpad { ptr, i32 }
          catch ptr null
  %59 = extractvalue { ptr, i32 } %58, 0
  call void @__clang_call_terminate(ptr %59) #15
  unreachable

_ZN4cvc58internal12NodeTemplateILb1EED2Ev.exit:   ; preds = %46, %50, %56
  %60 = getelementptr inbounds nuw i8, ptr %.sroa.08.012, i64 8
  %.not = icmp eq ptr %60, %9
  br i1 %.not, label %._crit_edge, label %.lr.ph

61:                                               ; preds = %_ZN4cvc58internal12NodeTemplateILb1EEC2ERKS2_.exit7
  %62 = landingpad { ptr, i32 }
          cleanup
  call void @_ZN4cvc58internal12NodeTemplateILb1EED2Ev(ptr noundef nonnull align 8 dereferenceable(8) %5) #13
  resume { ptr, i32 } %62
}